Certificate:
    Data:
        Version: 3 (0x2)
        Serial Number: 1 (0x1)
        Signature Algorithm: sha256WithRSAEncryption
        Issuer: C=CN, ST=WH, L=WH, O=WHUT, OU=SECURITY, CN=CHORY/emailAddress=test.com
        Validity
            Not Before: Sep 28 08:03:09 2021 GMT
            Not After : Sep 28 08:03:09 2022 GMT
        Subject: C=CN, ST=WH, O=WHUT, OU=SECURITY, CN=CHORY/emailAddress=test.com
        Subject Public Key Info:
            Public Key Algorithm: rsaEncryption
                RSA Public-Key: (2048 bit)
                Modulus:
                    00:c1:70:5c:2d:15:16:75:9c:6c:04:57:6a:74:50:
                    c5:db:1e:b8:83:b3:55:d8:0b:19:5b:51:b5:0b:63:
                    5a:bc:9d:0c:34:17:2b:7e:cd:8d:58:2c:6c:77:d4:
                    75:44:82:c6:31:94:3a:23:8e:9e:70:72:37:8b:97:
                    70:28:99:ac:1e:12:08:06:39:d5:5c:5c:72:7b:58:
                    1b:40:e8:cc:00:49:79:6d:ee:64:42:88:10:51:89:
                    93:39:5d:1e:2d:e8:a2:f3:0a:91:28:97:4d:95:38:
                    be:32:6c:6e:ea:9d:ac:ae:38:84:46:bc:61:d8:3d:
                    5e:52:7b:16:d7:63:7b:0d:c7:4f:6a:39:13:c8:c7:
                    ea:60:da:85:b1:7f:9c:9f:65:4d:64:91:05:c4:a3:
                    72:a7:01:88:bf:33:d7:6c:46:8e:e6:8f:18:a4:1d:
                    87:28:35:75:53:5b:fc:93:5b:80:65:2f:3c:48:9b:
                    3e:4c:ea:50:b8:1f:0c:d0:cc:cc:dd:52:46:31:3c:
                    e8:3d:9a:1c:34:2b:83:28:bf:eb:9f:cd:e1:4c:eb:
                    fb:ec:ad:41:16:ca:c0:69:45:cb:2a:06:35:61:44:
                    82:be:0f:fc:27:07:ba:eb:cf:9d:b4:97:2e:45:0d:
                    ac:f6:17:0c:5e:4a:bd:89:8b:07:69:0e:ca:de:ef:
                    08:ff
                Exponent: 65537 (0x10001)
        X509v3 extensions:
            X509v3 Basic Constraints: 
                CA:FALSE
            Netscape Comment: 
                OpenSSL Generated Certificate
            X509v3 Subject Key Identifier: 
                12:BD:9E:AE:E5:9B:D3:E3:31:A9:41:3E:F0:CC:CC:48:D0:D5:8E:BD
            X509v3 Authority Key Identifier: 
                keyid:47:A6:16:A5:33:1E:7A:46:A4:44:00:89:71:12:B6:B4:FF:EE:3F:3A

    Signature Algorithm: sha256WithRSAEncryption
         1d:bf:fa:1b:2e:4d:03:60:30:a5:69:9a:36:66:c9:8c:99:00:
         87:72:a2:2f:a8:64:f3:d5:62:b0:db:0e:52:3b:9b:64:9a:fd:
         e5:66:15:f9:7a:62:9e:15:73:02:38:3c:4e:77:e9:45:a4:ac:
         77:ed:bd:9f:57:78:65:20:66:24:c3:df:7e:33:c5:41:d4:ee:
         ac:b0:c8:de:7d:28:59:d8:2e:f5:33:3f:0c:d9:f6:50:57:5c:
         1b:9f:25:e1:8a:92:37:18:99:11:05:ec:af:be:ba:54:ab:d9:
         a1:30:c8:5c:93:b8:68:44:7a:0b:ae:64:bf:0c:20:dd:22:02:
         21:d3:36:3e:48:20:d8:0e:5d:d4:8e:59:40:52:5a:c0:3d:91:
         09:69:35:23:8c:32:b0:0a:2b:d7:8a:40:e5:16:90:0b:70:68:
         e8:c7:05:20:5c:72:32:a3:1f:06:b2:af:c6:8c:8a:be:4d:f4:
         fe:fe:c1:00:b0:34:0e:a6:dc:f8:8e:d0:4f:cc:a1:04:80:46:
         30:e0:8f:c7:d3:ef:aa:34:11:7d:26:6b:d7:03:38:8d:0c:c9:
         e4:45:ef:a7:af:d8:f3:7c:81:81:69:b3:85:61:ce:e5:19:4c:
         aa:a4:77:f8:99:83:c7:a6:07:49:a5:92:9f:46:ea:67:29:6d:
         57:de:d4:08
-----BEGIN CERTIFICATE-----
MIIDzTCCArWgAwIBAgIBATANBgkqhkiG9w0BAQsFADByMQswCQYDVQQGEwJDTjEL
MAkGA1UECAwCV0gxCzAJBgNVBAcMAldIMQ0wCwYDVQQKDARXSFVUMREwDwYDVQQL
DAhTRUNVUklUWTEOMAwGA1UEAwwFQ0hPUlkxFzAVBgkqhkiG9w0BCQEWCHRlc3Qu
Y29tMB4XDTIxMDkyODA4MDMwOVoXDTIyMDkyODA4MDMwOVowZTELMAkGA1UEBhMC
Q04xCzAJBgNVBAgMAldIMQ0wCwYDVQQKDARXSFVUMREwDwYDVQQLDAhTRUNVUklU
WTEOMAwGA1UEAwwFQ0hPUlkxFzAVBgkqhkiG9w0BCQEWCHRlc3QuY29tMIIBIjAN
BgkqhkiG9w0BAQEFAAOCAQ8AMIIBCgKCAQEAwXBcLRUWdZxsBFdqdFDF2x64g7NV
2AsZW1G1C2NavJ0MNBcrfs2NWCxsd9R1RILGMZQ6I46ecHI3i5dwKJmsHhIIBjnV
XFxye1gbQOjMAEl5be5kQogQUYmTOV0eLeii8wqRKJdNlTi+Mmxu6p2srjiERrxh
2D1eUnsW12N7DcdPajkTyMfqYNqFsX+cn2VNZJEFxKNypwGIvzPXbEaO5o8YpB2H
KDV1U1v8k1uAZS88SJs+TOpQuB8M0MzM3VJGMTzoPZocNCuDKL/rn83hTOv77K1B
FsrAaUXLKgY1YUSCvg/8Jwe668+dtJcuRQ2s9hcMXkq9iYsHaQ7K3u8I/wIDAQAB
o3sweTAJBgNVHRMEAjAAMCwGCWCGSAGG+EIBDQQfFh1PcGVuU1NMIEdlbmVyYXRl
ZCBDZXJ0aWZpY2F0ZTAdBgNVHQ4EFgQUEr2eruWb0+MxqUE+8MzMSNDVjr0wHwYD
VR0jBBgwFoAUR6YWpTMeekakRACJcRK2tP/uPzowDQYJKoZIhvcNAQELBQADggEB
AB2/+hsuTQNgMKVpmjZmyYyZAIdyoi+oZPPVYrDbDlI7m2Sa/eVmFfl6Yp4VcwI4
PE536UWkrHftvZ9XeGUgZiTD334zxUHU7qywyN59KFnYLvUzPwzZ9lBXXBufJeGK
kjcYmREF7K++ulSr2aEwyFyTuGhEeguuZL8MIN0iAiHTNj5IINgOXdSOWUBSWsA9
kQlpNSOMMrAKK9eKQOUWkAtwaOjHBSBccjKjHwayr8aMir5N9P7+wQCwNA6m3PiO
0E/MoQSARjDgj8fT76o0EX0ma9cDOI0MyeRF76ev2PN8gYFps4VhzuUZTKqkd/iZ
g8emB0mlkp9G6mcpbVfe1Ag=
-----END CERTIFICATE-----
